	.cpu cortex-m0
	.eabi_attribute 20, 1
	.eabi_attribute 21, 1
	.eabi_attribute 23, 3
	.eabi_attribute 24, 1
	.eabi_attribute 25, 1
	.eabi_attribute 26, 1
	.eabi_attribute 30, 6
	.eabi_attribute 34, 0
	.eabi_attribute 18, 4
	.file	"new_main.c"
	.text
.Ltext0:
	.cfi_sections	.debug_frame
	.align	1
	.global	delay
	.syntax unified
	.code	16
	.thumb_func
	.fpu softvfp
	.type	delay, %function
delay:
.LFB0:
	.file 1 "./src/main.c"
	.loc 1 5 0
	.cfi_startproc
	@ args = 0, pretend = 0, frame = 16
	@ frame_needed = 1, uses_anonymous_args = 0
	push	{r7, lr}
	.cfi_def_cfa_offset 8
	.cfi_offset 7, -8
	.cfi_offset 14, -4
	sub	sp, sp, #16
	.cfi_def_cfa_offset 24
	add	r7, sp, #0
	.cfi_def_cfa_register 7
	str	r0, [r7, #4]
	.loc 1 7 0
	movs	r3, #0
	str	r3, [r7, #12]
	b	.L2
.L5:
	.loc 1 9 0
	movs	r3, #0
	str	r3, [r7, #8]
	b	.L3
.L4:
	.loc 1 11 0 discriminator 3
	.syntax divided
@ 11 "./src/main.c" 1
	 nop
@ 0 "" 2
	.loc 1 9 0 discriminator 3
	.thumb
	.syntax unified
	ldr	r3, [r7, #8]
	adds	r3, r3, #1
	str	r3, [r7, #8]
.L3:
	.loc 1 9 0 is_stmt 0 discriminator 1
	ldr	r3, [r7, #8]
	ldr	r2, .L6
	cmp	r3, r2
	bls	.L4
	.loc 1 7 0 is_stmt 1 discriminator 2
	ldr	r3, [r7, #12]
	adds	r3, r3, #1
	str	r3, [r7, #12]
.L2:
	.loc 1 7 0 is_stmt 0 discriminator 1
	ldr	r2, [r7, #12]
	ldr	r3, [r7, #4]
	cmp	r2, r3
	bcc	.L5
	.loc 1 14 0 is_stmt 1
	nop
	mov	sp, r7
	add	sp, sp, #16
	@ sp needed
	pop	{r7, pc}
.L7:
	.align	2
.L6:
	.word	4094
	.cfi_endproc
.LFE0:
	.size	delay, .-delay
	.align	1
	.global	main
	.syntax unified
	.code	16
	.thumb_func
	.fpu softvfp
	.type	main, %function
main:
.LFB1:
	.loc 1 17 0
	.cfi_startproc
	@ args = 0, pretend = 0, frame = 8
	@ frame_needed = 1, uses_anonymous_args = 0
	push	{r7, lr}
	.cfi_def_cfa_offset 8
	.cfi_offset 7, -8
	.cfi_offset 14, -4
	sub	sp, sp, #8
	.cfi_def_cfa_offset 16
	add	r7, sp, #0
	.cfi_def_cfa_register 7
.LBB2:
	.loc 1 19 0
	ldr	r3, .L10
	ldr	r3, [r3]
	ldr	r2, .L10+4
	ands	r3, r2
	str	r3, [r7, #4]
	ldr	r3, [r7, #4]
	movs	r2, #128
	lsls	r2, r2, #10
	orrs	r3, r2
	str	r3, [r7, #4]
	ldr	r3, .L10
	ldr	r2, [r7, #4]
	str	r2, [r3]
	movs	r0, #10
	bl	delay
.LBE2:
.LBB3:
	.loc 1 21 0
	movs	r3, #144
	lsls	r3, r3, #23
	ldr	r3, [r3]
	ldr	r2, .L10+8
	ands	r3, r2
	str	r3, [r7]
	ldr	r3, [r7]
	movs	r2, #128
	lsls	r2, r2, #1
	orrs	r3, r2
	str	r3, [r7]
	movs	r3, #144
	lsls	r3, r3, #23
	ldr	r2, [r7]
	str	r2, [r3]
.L9:
.LBE3:
	.loc 1 24 0 discriminator 1
	ldr	r3, .L10+12
	movs	r2, #0
	str	r2, [r3]
	.loc 1 25 0 discriminator 1
	movs	r0, #255
	bl	delay
	.loc 1 26 0 discriminator 1
	ldr	r3, .L10+12
	movs	r2, #16
	str	r2, [r3]
	.loc 1 27 0 discriminator 1
	movs	r0, #255
	bl	delay
	.loc 1 24 0 discriminator 1
	b	.L9
.L11:
	.align	2
.L10:
	.word	1073877012
	.word	-131073
	.word	-769
	.word	1207959572
	.cfi_endproc
.LFE1:
	.size	main, .-main
	.align	1
	.global	Reserved_IRQHandler
	.syntax unified
	.code	16
	.thumb_func
	.fpu softvfp
	.type	Reserved_IRQHandler, %function
Reserved_IRQHandler:
.LFB2:
	.loc 1 33 0
	.cfi_startproc
	@ args = 0, pretend = 0, frame = 0
	@ frame_needed = 1, uses_anonymous_args = 0
	push	{r7, lr}
	.cfi_def_cfa_offset 8
	.cfi_offset 7, -8
	.cfi_offset 14, -4
	add	r7, sp, #0
	.cfi_def_cfa_register 7
.L13:
	.loc 1 34 0 discriminator 1
	b	.L13
	.cfi_endproc
.LFE2:
	.size	Reserved_IRQHandler, .-Reserved_IRQHandler
	.align	1
	.global	NMI_Handler
	.syntax unified
	.code	16
	.thumb_func
	.fpu softvfp
	.type	NMI_Handler, %function
NMI_Handler:
.LFB3:
	.loc 1 41 0
	.cfi_startproc
	@ args = 0, pretend = 0, frame = 0
	@ frame_needed = 1, uses_anonymous_args = 0
	push	{r7, lr}
	.cfi_def_cfa_offset 8
	.cfi_offset 7, -8
	.cfi_offset 14, -4
	add	r7, sp, #0
	.cfi_def_cfa_register 7
.L15:
	.loc 1 42 0 discriminator 1
	b	.L15
	.cfi_endproc
.LFE3:
	.size	NMI_Handler, .-NMI_Handler
	.align	1
	.global	HardFault_Handler
	.syntax unified
	.code	16
	.thumb_func
	.fpu softvfp
	.type	HardFault_Handler, %function
HardFault_Handler:
.LFB4:
	.loc 1 49 0
	.cfi_startproc
	@ args = 0, pretend = 0, frame = 0
	@ frame_needed = 1, uses_anonymous_args = 0
	push	{r7, lr}
	.cfi_def_cfa_offset 8
	.cfi_offset 7, -8
	.cfi_offset 14, -4
	add	r7, sp, #0
	.cfi_def_cfa_register 7
.L17:
	.loc 1 50 0 discriminator 1
	b	.L17
	.cfi_endproc
.LFE4:
	.size	HardFault_Handler, .-HardFault_Handler
	.align	1
	.global	SVC_Handler
	.syntax unified
	.code	16
	.thumb_func
	.fpu softvfp
	.type	SVC_Handler, %function
SVC_Handler:
.LFB5:
	.loc 1 57 0
	.cfi_startproc
	@ args = 0, pretend = 0, frame = 0
	@ frame_needed = 1, uses_anonymous_args = 0
	push	{r7, lr}
	.cfi_def_cfa_offset 8
	.cfi_offset 7, -8
	.cfi_offset 14, -4
	add	r7, sp, #0
	.cfi_def_cfa_register 7
.L19:
	.loc 1 58 0 discriminator 1
	b	.L19
	.cfi_endproc
.LFE5:
	.size	SVC_Handler, .-SVC_Handler
	.align	1
	.global	PendSV_Handler
	.syntax unified
	.code	16
	.thumb_func
	.fpu softvfp
	.type	PendSV_Handler, %function
PendSV_Handler:
.LFB6:
	.loc 1 65 0
	.cfi_startproc
	@ args = 0, pretend = 0, frame = 0
	@ frame_needed = 1, uses_anonymous_args = 0
	push	{r7, lr}
	.cfi_def_cfa_offset 8
	.cfi_offset 7, -8
	.cfi_offset 14, -4
	add	r7, sp, #0
	.cfi_def_cfa_register 7
.L21:
	.loc 1 66 0 discriminator 1
	b	.L21
	.cfi_endproc
.LFE6:
	.size	PendSV_Handler, .-PendSV_Handler
	.align	1
	.global	SysTick_Handler
	.syntax unified
	.code	16
	.thumb_func
	.fpu softvfp
	.type	SysTick_Handler, %function
SysTick_Handler:
.LFB7:
	.loc 1 73 0
	.cfi_startproc
	@ args = 0, pretend = 0, frame = 0
	@ frame_needed = 1, uses_anonymous_args = 0
	push	{r7, lr}
	.cfi_def_cfa_offset 8
	.cfi_offset 7, -8
	.cfi_offset 14, -4
	add	r7, sp, #0
	.cfi_def_cfa_register 7
.L23:
	.loc 1 74 0 discriminator 1
	b	.L23
	.cfi_endproc
.LFE7:
	.size	SysTick_Handler, .-SysTick_Handler
.Letext0: